; Function Attrs: mustprogress nofree nounwind willreturn memory(read) uwtable
define dso_local noundef i32 @_ZN26cmCTestMultiProcessHandler12FindMaxIndexEv(ptr noundef nonnull readonly align 8 dereferenceable(870) %0) local_unnamed_addr #8 align 2 {
  %2 = getelementptr inbounds i8, ptr %0, i64 256
  %3 = load ptr, ptr %2, align 8
  %4 = getelementptr inbounds i8, ptr %0, i64 240
  %.not10 = icmp eq ptr %3, %4
  br i1 %.not10, label %._crit_edge, label %.lr.ph

.lr.ph:                                           ; preds = %1, %.lr.ph
  %.012 = phi i32 [ %spec.select, %.lr.ph ], [ 0, %1 ]
  %.sroa.07.011 = phi ptr [ %7, %.lr.ph ], [ %3, %1 ]
  %5 = getelementptr inbounds i8, ptr %.sroa.07.011, i64 32
  %6 = load i32, ptr %5, align 8
  %spec.select = tail call i32 @llvm.smax.i32(i32 %6, i32 %.012)
  %7 = tail call noundef ptr @_ZSt18_Rb_tree_incrementPSt18_Rb_tree_node_base(ptr noundef %.sroa.07.011) #28
  %.not = icmp eq ptr %7, %4
  br i1 %.not, label %._crit_edge, label %.lr.ph

._crit_edge:                                      ; preds = %.lr.ph, %1
  %.0.lcssa = phi i32 [ 0, %1 ], [ %spec.select, %.lr.ph ]
  ret i32 %.0.lcssa
}